(dp0
(S''
p1
S'GBP'
p2
tp3
F0.0
s(S'PLN'
p4
S'SLL'
p5
tp6
F1370.6
s(S'USD'
p7
S'PLN'
p8
tp9
I2
s(S'PLN'
p10
S'EUR'
p11
tp12
F0.2437
s(g1
S'PLN'
p13
tp14
F0.0
s(g10
S'PLN'
p15
tp16
F1.0
s(g1
S'EUR'
p17
tp18
F0.0
s(g1
S'USD'
p19
tp20
F0.0
s(g10
S'USD'
p21
tp22
F0.3183
s(g10
S'GBP'
p23
tp24
F0.209
s.